; Function Attrs: mustprogress nounwind uwtable
define internal fastcc void @_ZL12escapeForRSTB5cxx11N4llvm9StringRefE(ptr dead_on_unwind noalias nonnull writable align 8 %0, ptr readonly %1, i64 %2) unnamed_addr #0 {
  tail call void @_ZNSt7__cxx1112basic_stringIcSt11char_traitsIcESaIcEEC1Ev(ptr noundef nonnull align 8 dereferenceable(32) %0) #14
  %4 = add i64 %2, 4
  tail call void @_ZNSt7__cxx1112basic_stringIcSt11char_traitsIcESaIcEE7reserveEm(ptr noundef nonnull align 8 dereferenceable(32) %0, i64 noundef %4) #14
  %5 = getelementptr inbounds i8, ptr %1, i64 %2
  %.not10 = icmp eq i64 %2, 0
  br i1 %.not10, label %._crit_edge, label %.lr.ph

.lr.ph:                                           ; preds = %3, %15
  %.011 = phi ptr [ %16, %15 ], [ %1, %3 ]
  %6 = load i8, ptr %.011, align 1
  switch i8 %6, label %13 [
    i8 10, label %7
    i8 9, label %9
    i8 95, label %11
  ]

7:                                                ; preds = %.lr.ph
  %8 = tail call noundef nonnull align 8 dereferenceable(32) ptr @_ZNSt7__cxx1112basic_stringIcSt11char_traitsIcESaIcEEpLEPKc(ptr noundef nonnull align 8 dereferenceable(32) %0, ptr noundef nonnull @.str.68) #14
  br label %15

9:                                                ; preds = %.lr.ph
  %10 = tail call noundef nonnull align 8 dereferenceable(32) ptr @_ZNSt7__cxx1112basic_stringIcSt11char_traitsIcESaIcEEpLEPKc(ptr noundef nonnull align 8 dereferenceable(32) %0, ptr noundef nonnull @.str.69) #14
  br label %15

11:                                               ; preds = %.lr.ph
  %12 = tail call noundef nonnull align 8 dereferenceable(32) ptr @_ZNSt7__cxx1112basic_stringIcSt11char_traitsIcESaIcEEpLEPKc(ptr noundef nonnull align 8 dereferenceable(32) %0, ptr noundef nonnull @.str.70) #14
  br label %15

13:                                               ; preds = %.lr.ph
  %14 = tail call noundef nonnull align 8 dereferenceable(32) ptr @_ZNSt7__cxx1112basic_stringIcSt11char_traitsIcESaIcEEpLEc(ptr noundef nonnull align 8 dereferenceable(32) %0, i8 noundef signext %6) #14
  br label %15

15:                                               ; preds = %7, %9, %11, %13
  %16 = getelementptr inbounds i8, ptr %.011, i64 1
  %.not = icmp eq ptr %16, %5
  br i1 %.not, label %._crit_edge, label %.lr.ph

._crit_edge:                                      ; preds = %15, %3
  ret void
}